(dp1
S'steppermotorserver'
p2
ccopy_reg
_reconstructor
p3
(ctwisted.plugin
CachedDropin
p4
c__builtin__
object
p5
NtRp6
(dp7
S'moduleName'
p8
S'sitzlabrad.servers.steppermotorserver'
p9
sS'description'
p10
NsS'plugins'
p11
(lp12
g3
(ctwisted.plugin
CachedPlugin
p13
g5
NtRp14
(dp15
S'provided'
p16
(lp17
ctwisted.plugin
IPlugin
p18
aclabrad.interfaces
ILabradServer
p19
actwisted.internet.interfaces
IProtocolFactory
p20
actwisted.internet.interfaces
ILoggingContext
p21
asS'dropin'
p22
g6
sS'name'
p23
S'__server__'
p24
sg10
NsbasbsS'voltmeterserver'
p25
g3
(g4
g5
NtRp26
(dp27
g8
S'sitzlabrad.servers.voltmeterserver'
p28
sg10
Nsg11
(lp29
g3
(g13
g5
NtRp30
(dp31
g16
(lp32
g18
ag19
ag20
ag21
asg22
g26
sg23
S'__server__'
p33
sg10
Nsbasbs.